target datalayout = "e-m:e-p270:32:32-p271:32:32-p272:64:64-i64:64-i128:128-f80:128-n8:16:32:64-S128"
target triple = "x86_64-pc-linux-gnu"

%struct.QueryDesc = type { i32, ptr, ptr, ptr, ptr, ptr, ptr, ptr, i32, ptr, ptr, ptr, i8, ptr }
%struct.EState = type { i32, i32, ptr, ptr, ptr, i32, ptr, ptr, ptr, ptr, ptr, ptr, ptr, ptr, ptr, ptr, i32, ptr, ptr, ptr, ptr, ptr, ptr, ptr, ptr, ptr, ptr, i64, i64, i32, i32, i8, ptr, ptr, ptr, ptr, ptr, i8, i32, i32, ptr, i32, ptr, ptr, ptr, ptr }
%struct.ForEachState = type { ptr, i32 }
%struct.List = type { i32, i32, i32, ptr, [0 x %union.ListCell] }
%union.ListCell = type { ptr }
%struct.ItemPointerData = type { %struct.BlockIdData, i16 }
%struct.BlockIdData = type { i16, i16 }
%struct.PlanState = type { i32, ptr, ptr, ptr, ptr, ptr, ptr, ptr, ptr, ptr, ptr, ptr, ptr, ptr, ptr, ptr, ptr, ptr, i8, ptr, ptr, ptr, ptr, ptr, i8, i8, i8, i8, i8, i8, i8, i8 }
%struct.ExprContext = type { i32, ptr, ptr, ptr, ptr, ptr, ptr, ptr, ptr, ptr, i64, i8, i64, i8, ptr, ptr, ptr, ptr }
%struct.TupleTableSlot = type { i32, i16, i16, ptr, ptr, ptr, ptr, ptr, %struct.ItemPointerData, i32 }

@CurrentMemoryContext = external global ptr, align 8

; Function Attrs: inlinehint nounwind uwtable
define internal ptr @ExecProcNode(ptr noundef %0) #3 {
  %2 = alloca ptr, align 8
  store ptr %0, ptr %2, align 8
  %3 = load ptr, ptr %2, align 8
  %4 = getelementptr inbounds nuw %struct.PlanState, ptr %3, i32 0, i32 13
  %5 = load ptr, ptr %4, align 8
  %6 = icmp ne ptr %5, null
  br i1 %6, label %7, label %9

7:                                                ; preds = %1
  %8 = load ptr, ptr %2, align 8
  call void @ExecReScan(ptr noundef %8)
  br label %9

9:                                                ; preds = %7, %1
  %10 = load ptr, ptr %2, align 8
  %11 = getelementptr inbounds nuw %struct.PlanState, ptr %10, i32 0, i32 3
  %12 = load ptr, ptr %11, align 8
  %13 = load ptr, ptr %2, align 8
  %14 = call ptr %12(ptr noundef %13)
  ret ptr %14
}

; Function Attrs: nounwind uwtable
define internal void @ExecPostprocessPlan(ptr noundef %0) #0 {
  %2 = alloca ptr, align 8
  %3 = alloca ptr, align 8
  %4 = alloca %struct.ForEachState, align 8
  %5 = alloca i32, align 4
  %6 = alloca ptr, align 8
  %7 = alloca ptr, align 8
  store ptr %0, ptr %2, align 8
  call void @llvm.lifetime.start.p0(i64 8, ptr %3) #9
  %8 = load ptr, ptr %2, align 8
  %9 = getelementptr inbounds nuw %struct.EState, ptr %8, i32 0, i32 1
  store i32 1, ptr %9, align 4
  call void @llvm.lifetime.start.p0(i64 16, ptr %4) #9
  %10 = getelementptr inbounds nuw %struct.ForEachState, ptr %4, i32 0, i32 0
  %11 = load ptr, ptr %2, align 8
  %12 = getelementptr inbounds nuw %struct.EState, ptr %11, i32 0, i32 34
  %13 = load ptr, ptr %12, align 8
  store ptr %13, ptr %10, align 8
  %14 = getelementptr inbounds nuw %struct.ForEachState, ptr %4, i32 0, i32 1
  store i32 0, ptr %14, align 8
  %15 = getelementptr i8, ptr %4, i64 12
  call void @llvm.memset.p0.i64(ptr align 4 %15, i8 0, i64 4, i1 false)
  br label %16

16:                                               ; preds = %77, %1
  %17 = getelementptr inbounds nuw %struct.ForEachState, ptr %4, i32 0, i32 0
  %18 = load ptr, ptr %17, align 8
  %19 = icmp ne ptr %18, null
  br i1 %19, label %20, label %37

20:                                               ; preds = %16
  %21 = getelementptr inbounds nuw %struct.ForEachState, ptr %4, i32 0, i32 1
  %22 = load i32, ptr %21, align 8
  %23 = getelementptr inbounds nuw %struct.ForEachState, ptr %4, i32 0, i32 0
  %24 = load ptr, ptr %23, align 8
  %25 = getelementptr inbounds nuw %struct.List, ptr %24, i32 0, i32 1
  %26 = load i32, ptr %25, align 4
  %27 = icmp slt i32 %22, %26
  br i1 %27, label %28, label %37

28:                                               ; preds = %20
  %29 = getelementptr inbounds nuw %struct.ForEachState, ptr %4, i32 0, i32 0
  %30 = load ptr, ptr %29, align 8
  %31 = getelementptr inbounds nuw %struct.List, ptr %30, i32 0, i32 3
  %32 = load ptr, ptr %31, align 8
  %33 = getelementptr inbounds nuw %struct.ForEachState, ptr %4, i32 0, i32 1
  %34 = load i32, ptr %33, align 8
  %35 = sext i32 %34 to i64
  %36 = getelementptr inbounds %union.ListCell, ptr %32, i64 %35
  store ptr %36, ptr %3, align 8
  br label %38

37:                                               ; preds = %20, %16
  store ptr null, ptr %3, align 8
  br label %38

38:                                               ; preds = %37, %28
  %39 = phi i32 [ 1, %28 ], [ 0, %37 ]
  %40 = icmp ne i32 %39, 0
  br i1 %40, label %42, label %41

41:                                               ; preds = %38
  store i32 2, ptr %5, align 4
  call void @llvm.lifetime.end.p0(i64 16, ptr %4) #9
  br label %81

42:                                               ; preds = %38
  call void @llvm.lifetime.start.p0(i64 8, ptr %6) #9
  %43 = load ptr, ptr %3, align 8
  %44 = load ptr, ptr %43, align 8
  store ptr %44, ptr %6, align 8
  br label %45

45:                                               ; preds = %75, %42
  call void @llvm.lifetime.start.p0(i64 8, ptr %7) #9
  br label %46

46:                                               ; preds = %45
  %47 = load ptr, ptr %2, align 8
  %48 = getelementptr inbounds nuw %struct.EState, ptr %47, i32 0, i32 35
  %49 = load ptr, ptr %48, align 8
  %50 = icmp ne ptr %49, null
  br i1 %50, label %51, label %57

51:                                               ; preds = %46
  %52 = load ptr, ptr %2, align 8
  %53 = getelementptr inbounds nuw %struct.EState, ptr %52, i32 0, i32 35
  %54 = load ptr, ptr %53, align 8
  %55 = getelementptr inbounds nuw %struct.ExprContext, ptr %54, i32 0, i32 5
  %56 = load ptr, ptr %55, align 8
  call void @MemoryContextReset(ptr noundef %56)
  br label %57

57:                                               ; preds = %51, %46
  br label %58

58:                                               ; preds = %57
  br label %59

59:                                               ; preds = %58
  %60 = load ptr, ptr %6, align 8
  %61 = call ptr @ExecProcNode(ptr noundef %60)
  store ptr %61, ptr %7, align 8
  %62 = load ptr, ptr %7, align 8
  %63 = icmp eq ptr %62, null
  br i1 %63, label %71, label %64

64:                                               ; preds = %59
  %65 = load ptr, ptr %7, align 8
  %66 = getelementptr inbounds nuw %struct.TupleTableSlot, ptr %65, i32 0, i32 1
  %67 = load i16, ptr %66, align 4
  %68 = zext i16 %67 to i32
  %69 = and i32 %68, 2
  %70 = icmp ne i32 %69, 0
  br i1 %70, label %71, label %72

71:                                               ; preds = %64, %59
  store i32 5, ptr %5, align 4
  br label %73

72:                                               ; preds = %64
  store i32 0, ptr %5, align 4
  br label %73

73:                                               ; preds = %72, %71
  call void @llvm.lifetime.end.p0(i64 8, ptr %7) #9
  %74 = load i32, ptr %5, align 4
  switch i32 %74, label %82 [
    i32 0, label %75
    i32 5, label %76
  ]

75:                                               ; preds = %73
  br label %45

76:                                               ; preds = %73
  call void @llvm.lifetime.end.p0(i64 8, ptr %6) #9
  br label %77

77:                                               ; preds = %76
  %78 = getelementptr inbounds nuw %struct.ForEachState, ptr %4, i32 0, i32 1
  %79 = load i32, ptr %78, align 8
  %80 = add i32 %79, 1
  store i32 %80, ptr %78, align 8
  br label %16, !llvm.loop !11

81:                                               ; preds = %41
  call void @llvm.lifetime.end.p0(i64 8, ptr %3) #9
  ret void

82:                                               ; preds = %73
  unreachable
}

; Function Attrs: inlinehint nounwind uwtable
define internal ptr @MemoryContextSwitchTo(ptr noundef %0) #3 {
  %2 = alloca ptr, align 8
  %3 = alloca ptr, align 8
  store ptr %0, ptr %2, align 8
  call void @llvm.lifetime.start.p0(i64 8, ptr %3) #9
  %4 = load ptr, ptr @CurrentMemoryContext, align 8
  store ptr %4, ptr %3, align 8
  %5 = load ptr, ptr %2, align 8
  store ptr %5, ptr @CurrentMemoryContext, align 8
  %6 = load ptr, ptr %3, align 8
  call void @llvm.lifetime.end.p0(i64 8, ptr %3) #9
  ret ptr %6
}

; Function Attrs: nounwind uwtable
define dso_local void @standard_ExecutorFinish(ptr noundef %0) #0 {
  %2 = alloca ptr, align 8
  %3 = alloca ptr, align 8
  %4 = alloca ptr, align 8
  store ptr %0, ptr %2, align 8
  call void @llvm.lifetime.start.p0(i64 8, ptr %3) #9
  call void @llvm.lifetime.start.p0(i64 8, ptr %4) #9
  %5 = load ptr, ptr %2, align 8
  %6 = getelementptr inbounds nuw %struct.QueryDesc, ptr %5, i32 0, i32 10
  %7 = load ptr, ptr %6, align 8
  store ptr %7, ptr %3, align 8
  %8 = load ptr, ptr %3, align 8
  %9 = getelementptr inbounds nuw %struct.EState, ptr %8, i32 0, i32 25
  %10 = load ptr, ptr %9, align 8
  %11 = call ptr @MemoryContextSwitchTo(ptr noundef %10)
  store ptr %11, ptr %4, align 8
  %12 = load ptr, ptr %2, align 8
  %13 = getelementptr inbounds nuw %struct.QueryDesc, ptr %12, i32 0, i32 13
  %14 = load ptr, ptr %13, align 8
  %15 = icmp ne ptr %14, null
  br i1 %15, label %16, label %20

16:                                               ; preds = %1
  %17 = load ptr, ptr %2, align 8
  %18 = getelementptr inbounds nuw %struct.QueryDesc, ptr %17, i32 0, i32 13
  %19 = load ptr, ptr %18, align 8
  call void @InstrStartNode(ptr noundef %19)
  br label %20

20:                                               ; preds = %16, %1
  %21 = load ptr, ptr %3, align 8
  call void @ExecPostprocessPlan(ptr noundef %21)
  %22 = load ptr, ptr %3, align 8
  %23 = getelementptr inbounds nuw %struct.EState, ptr %22, i32 0, i32 29
  %24 = load i32, ptr %23, align 8
  %25 = and i32 %24, 32
  %26 = icmp ne i32 %25, 0
  br i1 %26, label %29, label %27

27:                                               ; preds = %20
  %28 = load ptr, ptr %3, align 8
  call void @AfterTriggerEndQuery(ptr noundef %28)
  br label %29

29:                                               ; preds = %27, %20
  %30 = load ptr, ptr %2, align 8
  %31 = getelementptr inbounds nuw %struct.QueryDesc, ptr %30, i32 0, i32 13
  %32 = load ptr, ptr %31, align 8
  %33 = icmp ne ptr %32, null
  br i1 %33, label %34, label %38

34:                                               ; preds = %29
  %35 = load ptr, ptr %2, align 8
  %36 = getelementptr inbounds nuw %struct.QueryDesc, ptr %35, i32 0, i32 13
  %37 = load ptr, ptr %36, align 8
  call void @InstrStopNode(ptr noundef %37, double noundef 0.000000e+00)
  br label %38

38:                                               ; preds = %34, %29
  %39 = load ptr, ptr %4, align 8
  %40 = call ptr @MemoryContextSwitchTo(ptr noundef %39)
  %41 = load ptr, ptr %3, align 8
  %42 = getelementptr inbounds nuw %struct.EState, ptr %41, i32 0, i32 31
  store i8 1, ptr %42, align 8
  call void @llvm.lifetime.end.p0(i64 8, ptr %4) #9
  call void @llvm.lifetime.end.p0(i64 8, ptr %3) #9
  ret void
}