; Function Attrs: nounwind uwtable
define dso_local void @standard_ExecutorFinish(ptr noundef readonly captures(none) %0) local_unnamed_addr #0 {
  %2 = getelementptr inbounds nuw i8, ptr %0, i64 80
  %3 = load ptr, ptr %2, align 8
  %4 = getelementptr inbounds nuw i8, ptr %3, i64 192
  %5 = load ptr, ptr %4, align 8
  %6 = load ptr, ptr @CurrentMemoryContext, align 8
  store ptr %5, ptr @CurrentMemoryContext, align 8
  %7 = getelementptr inbounds nuw i8, ptr %0, i64 104
  %8 = load ptr, ptr %7, align 8
  %.not = icmp eq ptr %8, null
  br i1 %.not, label %10, label %9

9:                                                ; preds = %1
  tail call void @InstrStartNode(ptr noundef nonnull %8) #9
  br label %10

10:                                               ; preds = %9, %1
  %11 = getelementptr inbounds nuw i8, ptr %3, i64 4
  store i32 1, ptr %11, align 4
  %12 = getelementptr inbounds nuw i8, ptr %3, i64 256
  %13 = load ptr, ptr %12, align 8
  %14 = getelementptr inbounds nuw i8, ptr %13, i64 4
  %.not.i = icmp eq ptr %13, null
  br i1 %.not.i, label %ExecPostprocessPlan.exit, label %.lr.ph.i

.lr.ph.i:                                         ; preds = %10
  %15 = getelementptr inbounds nuw i8, ptr %13, i64 16
  %16 = getelementptr inbounds nuw i8, ptr %3, i64 264
  %17 = load i32, ptr %14, align 4
  %18 = icmp sgt i32 %17, 0
  br i1 %18, label %.lr.ph28.i, label %ExecPostprocessPlan.exit

.lr.ph28.i:                                       ; preds = %.lr.ph.i, %39
  %indvars.iv.i = phi i64 [ %indvars.iv.next.i, %39 ], [ 0, %.lr.ph.i ]
  %19 = load ptr, ptr %15, align 8
  %20 = getelementptr inbounds nuw %union.ListCell, ptr %19, i64 %indvars.iv.i
  %21 = load ptr, ptr %20, align 8
  %22 = getelementptr inbounds nuw i8, ptr %21, i64 104
  %23 = getelementptr inbounds nuw i8, ptr %21, i64 24
  br label %24

24:                                               ; preds = %35, %.lr.ph28.i
  %25 = load ptr, ptr %16, align 8
  %.not17.i = icmp eq ptr %25, null
  br i1 %.not17.i, label %29, label %26

26:                                               ; preds = %24
  %27 = getelementptr inbounds nuw i8, ptr %25, i64 40
  %28 = load ptr, ptr %27, align 8
  tail call void @MemoryContextReset(ptr noundef %28) #9
  br label %29

29:                                               ; preds = %26, %24
  %30 = load ptr, ptr %22, align 8
  %.not.i.i = icmp eq ptr %30, null
  br i1 %.not.i.i, label %ExecProcNode.exit.i, label %31

31:                                               ; preds = %29
  tail call void @ExecReScan(ptr noundef nonnull %21) #9
  br label %ExecProcNode.exit.i

ExecProcNode.exit.i:                              ; preds = %31, %29
  %32 = load ptr, ptr %23, align 8
  %33 = tail call ptr %32(ptr noundef nonnull %21) #9
  %34 = icmp eq ptr %33, null
  br i1 %34, label %39, label %35

35:                                               ; preds = %ExecProcNode.exit.i
  %36 = getelementptr inbounds nuw i8, ptr %33, i64 4
  %37 = load i16, ptr %36, align 4
  %38 = and i16 %37, 2
  %.not18.i = icmp eq i16 %38, 0
  br i1 %.not18.i, label %24, label %39

39:                                               ; preds = %35, %ExecProcNode.exit.i
  %indvars.iv.next.i = add nuw nsw i64 %indvars.iv.i, 1
  %40 = load i32, ptr %14, align 4
  %41 = sext i32 %40 to i64
  %42 = icmp slt i64 %indvars.iv.next.i, %41
  br i1 %42, label %.lr.ph28.i, label %ExecPostprocessPlan.exit

ExecPostprocessPlan.exit:                         ; preds = %39, %10, %.lr.ph.i
  %43 = getelementptr inbounds nuw i8, ptr %3, i64 224
  %44 = load i32, ptr %43, align 8
  %45 = and i32 %44, 32
  %.not12 = icmp eq i32 %45, 0
  br i1 %.not12, label %46, label %47

46:                                               ; preds = %ExecPostprocessPlan.exit
  tail call void @AfterTriggerEndQuery(ptr noundef nonnull %3) #9
  br label %47

47:                                               ; preds = %46, %ExecPostprocessPlan.exit
  %48 = load ptr, ptr %7, align 8
  %.not13 = icmp eq ptr %48, null
  br i1 %.not13, label %50, label %49

49:                                               ; preds = %47
  tail call void @InstrStopNode(ptr noundef nonnull %48, double noundef 0.000000e+00) #9
  br label %50

50:                                               ; preds = %49, %47
  store ptr %6, ptr @CurrentMemoryContext, align 8
  %51 = getelementptr inbounds nuw i8, ptr %3, i64 232
  store i8 1, ptr %51, align 8
  ret void
}